target datalayout = "e-m:e-p270:32:32-p271:32:32-p272:64:64-i64:64-i128:128-f80:128-n8:16:32:64-S128"
target triple = "x86_64-pc-linux-gnu"

%struct.MRef = type { i64 }
%struct.SBuf = type { ptr, ptr, ptr, %struct.MRef }

; Function Attrs: alwaysinline nounwind uwtable
define internal ptr @lj_buf_more(ptr noundef %0, i32 noundef %1) #5 {
  %3 = alloca ptr, align 8
  %4 = alloca ptr, align 8
  %5 = alloca i32, align 4
  store ptr %0, ptr %4, align 8, !tbaa !40
  store i32 %1, ptr %5, align 4, !tbaa !17
  %6 = load i32, ptr %5, align 4, !tbaa !17
  %7 = load ptr, ptr %4, align 8, !tbaa !40
  %8 = getelementptr inbounds nuw %struct.SBuf, ptr %7, i32 0, i32 1
  %9 = load ptr, ptr %8, align 8, !tbaa !48
  %10 = load ptr, ptr %4, align 8, !tbaa !40
  %11 = getelementptr inbounds nuw %struct.SBuf, ptr %10, i32 0, i32 0
  %12 = load ptr, ptr %11, align 8, !tbaa !42
  %13 = ptrtoint ptr %9 to i64
  %14 = ptrtoint ptr %12 to i64
  %15 = sub i64 %13, %14
  %16 = trunc i64 %15 to i32
  %17 = icmp ugt i32 %6, %16
  %18 = xor i1 %17, true
  %19 = xor i1 %18, true
  %20 = zext i1 %19 to i32
  %21 = sext i32 %20 to i64
  %22 = call i64 @llvm.expect.i64(i64 %21, i64 0)
  %23 = icmp ne i64 %22, 0
  br i1 %23, label %24, label %28

24:                                               ; preds = %2
  %25 = load ptr, ptr %4, align 8, !tbaa !40
  %26 = load i32, ptr %5, align 4, !tbaa !17
  %27 = call ptr @lj_buf_more2(ptr noundef %25, i32 noundef %26)
  store ptr %27, ptr %3, align 8
  br label %32

28:                                               ; preds = %2
  %29 = load ptr, ptr %4, align 8, !tbaa !40
  %30 = getelementptr inbounds nuw %struct.SBuf, ptr %29, i32 0, i32 0
  %31 = load ptr, ptr %30, align 8, !tbaa !42
  store ptr %31, ptr %3, align 8
  br label %32

32:                                               ; preds = %28, %24
  %33 = load ptr, ptr %3, align 8
  ret ptr %33
}

; Function Attrs: nounwind uwtable
define hidden ptr @lj_strfmt_putint(ptr noundef %0, i32 noundef %1) #0 {
  %3 = alloca ptr, align 8
  %4 = alloca i32, align 4
  store ptr %0, ptr %3, align 8, !tbaa !40
  store i32 %1, ptr %4, align 4, !tbaa !17
  %5 = load ptr, ptr %3, align 8, !tbaa !40
  %6 = call ptr @lj_buf_more(ptr noundef %5, i32 noundef 11)
  %7 = load i32, ptr %4, align 4, !tbaa !17
  %8 = call ptr @lj_strfmt_wint(ptr noundef %6, i32 noundef %7)
  %9 = load ptr, ptr %3, align 8, !tbaa !40
  %10 = getelementptr inbounds nuw %struct.SBuf, ptr %9, i32 0, i32 0
  store ptr %8, ptr %10, align 8, !tbaa !42
  %11 = load ptr, ptr %3, align 8, !tbaa !40
  ret ptr %11
}

; Function Attrs: nounwind uwtable
define hidden ptr @lj_strfmt_putfnum_int(ptr noundef %0, i32 noundef %1, double noundef %2) #0 {
  %4 = alloca ptr, align 8
  %5 = alloca ptr, align 8
  %6 = alloca i32, align 4
  %7 = alloca double, align 8
  %8 = alloca i64, align 8
  %9 = alloca i32, align 4
  store ptr %0, ptr %5, align 8, !tbaa !40
  store i32 %1, ptr %6, align 4, !tbaa !17
  store double %2, ptr %7, align 8, !tbaa !65
  call void @llvm.lifetime.start.p0(i64 8, ptr %8) #10
  %10 = load double, ptr %7, align 8, !tbaa !65
  %11 = fptosi double %10 to i64
  store i64 %11, ptr %8, align 8, !tbaa !23
  %12 = load i64, ptr %8, align 8, !tbaa !23
  %13 = load i64, ptr %8, align 8, !tbaa !23
  %14 = trunc i64 %13 to i32
  %15 = sext i32 %14 to i64
  %16 = icmp eq i64 %12, %15
  br i1 %16, label %17, label %25

17:                                               ; preds = %3
  %18 = load i32, ptr %6, align 4, !tbaa !17
  %19 = icmp eq i32 %18, 3
  br i1 %19, label %20, label %25

20:                                               ; preds = %17
  %21 = load ptr, ptr %5, align 8, !tbaa !40
  %22 = load i64, ptr %8, align 8, !tbaa !23
  %23 = trunc i64 %22 to i32
  %24 = call ptr @lj_strfmt_putint(ptr noundef %21, i32 noundef %23)
  store ptr %24, ptr %4, align 8
  store i32 1, ptr %9, align 4
  br label %30

25:                                               ; preds = %17, %3
  %26 = load ptr, ptr %5, align 8, !tbaa !40
  %27 = load i32, ptr %6, align 4, !tbaa !17
  %28 = load i64, ptr %8, align 8, !tbaa !23
  %29 = call ptr @lj_strfmt_putfxint(ptr noundef %26, i32 noundef %27, i64 noundef %28)
  store ptr %29, ptr %4, align 8
  store i32 1, ptr %9, align 4
  br label %30

30:                                               ; preds = %25, %20
  call void @llvm.lifetime.end.p0(i64 8, ptr %8) #10
  %31 = load ptr, ptr %4, align 8
  ret ptr %31
}