; Function Attrs: nounwind uwtable
define hidden noundef ptr @lj_strfmt_putfnum_int(ptr noundef returned %0, i32 noundef %1, double noundef %2) local_unnamed_addr #5 {
  %4 = fptosi double %2 to i64
  %5 = add i64 %4, 2147483648
  %6 = icmp ult i64 %5, 4294967296
  %7 = icmp eq i32 %1, 3
  %or.cond = and i1 %7, %6
  br i1 %or.cond, label %8, label %21

8:                                                ; preds = %3
  %9 = trunc i64 %4 to i32
  %10 = getelementptr inbounds nuw i8, ptr %0, i64 8
  %11 = load ptr, ptr %10, align 8, !tbaa !35
  %12 = load ptr, ptr %0, align 8, !tbaa !34
  %13 = ptrtoint ptr %11 to i64
  %14 = ptrtoint ptr %12 to i64
  %15 = sub i64 %13, %14
  %16 = trunc i64 %15 to i32
  %17 = icmp ult i32 %16, 11
  br i1 %17, label %18, label %lj_strfmt_putint.exit, !prof !36

18:                                               ; preds = %8
  %19 = tail call ptr @lj_buf_more2(ptr noundef nonnull %0, i32 noundef 11) #13
  br label %lj_strfmt_putint.exit

lj_strfmt_putint.exit:                            ; preds = %8, %18
  %.0.i.i = phi ptr [ %19, %18 ], [ %12, %8 ]
  %20 = tail call ptr @lj_strfmt_wint(ptr noundef %.0.i.i, i32 noundef %9)
  store ptr %20, ptr %0, align 8, !tbaa !34
  br label %23

21:                                               ; preds = %3
  %22 = tail call ptr @lj_strfmt_putfxint(ptr noundef %0, i32 noundef %1, i64 noundef %4)
  br label %23

23:                                               ; preds = %21, %lj_strfmt_putint.exit
  ret ptr %0
}